target datalayout = "e-m:e-p270:32:32-p271:32:32-p272:64:64-i64:64-i128:128-f80:128-n8:16:32:64-S128"
target triple = "x86_64-pc-linux-gnu"

%struct.Vector2 = type { float, float }

; Function Attrs: nounwind uwtable
define zeroext i1 @CheckCollisionCircles(<2 x float> %0, float noundef %1, <2 x float> %2, float noundef %3) #0 {
  %5 = alloca %struct.Vector2, align 4
  %6 = alloca %struct.Vector2, align 4
  %7 = alloca float, align 4
  %8 = alloca float, align 4
  %9 = alloca i8, align 1
  %10 = alloca float, align 4
  %11 = alloca float, align 4
  %12 = alloca float, align 4
  %13 = alloca float, align 4
  store <2 x float> %0, ptr %5, align 4
  store <2 x float> %2, ptr %6, align 4
  store float %1, ptr %7, align 4
  store float %3, ptr %8, align 4
  call void @llvm.lifetime.start.p0(i64 1, ptr %9) #8
  store i8 0, ptr %9, align 1
  call void @llvm.lifetime.start.p0(i64 4, ptr %10) #8
  %14 = getelementptr inbounds nuw %struct.Vector2, ptr %6, i32 0, i32 0
  %15 = load float, ptr %14, align 4
  %16 = getelementptr inbounds nuw %struct.Vector2, ptr %5, i32 0, i32 0
  %17 = load float, ptr %16, align 4
  %18 = fsub float %15, %17
  store float %18, ptr %10, align 4
  call void @llvm.lifetime.start.p0(i64 4, ptr %11) #8
  %19 = getelementptr inbounds nuw %struct.Vector2, ptr %6, i32 0, i32 1
  %20 = load float, ptr %19, align 4
  %21 = getelementptr inbounds nuw %struct.Vector2, ptr %5, i32 0, i32 1
  %22 = load float, ptr %21, align 4
  %23 = fsub float %20, %22
  store float %23, ptr %11, align 4
  call void @llvm.lifetime.start.p0(i64 4, ptr %12) #8
  %24 = load float, ptr %10, align 4
  %25 = load float, ptr %10, align 4
  %26 = load float, ptr %11, align 4
  %27 = load float, ptr %11, align 4
  %28 = fmul float %26, %27
  %29 = call float @llvm.fmuladd.f32(float %24, float %25, float %28)
  store float %29, ptr %12, align 4
  call void @llvm.lifetime.start.p0(i64 4, ptr %13) #8
  %30 = load float, ptr %7, align 4
  %31 = load float, ptr %8, align 4
  %32 = fadd float %30, %31
  store float %32, ptr %13, align 4
  %33 = load float, ptr %12, align 4
  %34 = load float, ptr %13, align 4
  %35 = load float, ptr %13, align 4
  %36 = fmul float %34, %35
  %37 = fcmp ole float %33, %36
  %38 = zext i1 %37 to i8
  store i8 %38, ptr %9, align 1
  %39 = load i8, ptr %9, align 1, !range !3, !noundef !4
  %40 = trunc i8 %39 to i1
  call void @llvm.lifetime.end.p0(i64 4, ptr %13) #8
  call void @llvm.lifetime.end.p0(i64 4, ptr %12) #8
  call void @llvm.lifetime.end.p0(i64 4, ptr %11) #8
  call void @llvm.lifetime.end.p0(i64 4, ptr %10) #8
  call void @llvm.lifetime.end.p0(i64 1, ptr %9) #8
  ret i1 %40
}