; Function Attrs: mustprogress nofree norecurse nosync nounwind willreturn memory(none) uwtable
define zeroext i1 @CheckCollisionCircles(<2 x float> %0, float noundef %1, <2 x float> %2, float noundef %3) local_unnamed_addr #11 {
  %5 = fsub <2 x float> %2, %0
  %6 = extractelement <2 x float> %5, i64 0
  %7 = fsub <2 x float> %2, %0
  %8 = fmul <2 x float> %7, %7
  %9 = extractelement <2 x float> %8, i64 1
  %10 = tail call float @llvm.fmuladd.f32(float %6, float %6, float %9)
  %11 = fadd float %1, %3
  %12 = fmul float %11, %11
  %13 = fcmp ole float %10, %12
  ret i1 %13
}